target datalayout = "e-m:e-p270:32:32-p271:32:32-p272:64:64-i64:64-i128:128-f80:128-n8:16:32:64-S128"
target triple = "x86_64-pc-linux-gnu"

%struct.grpc_tcp_server = type <{ %struct.gpr_refcount, ptr, ptr, i64, i64, i64, i8, i8, i8, i8, [4 x i8], ptr, ptr, i32, [4 x i8], %struct.grpc_closure_list, ptr, ptr, i64, %"struct.grpc_core::PosixTcpOptions", ptr, %"class.std::shared_ptr", i32, [4 x i8], %"class.absl::lts_20240722::flat_hash_map", %"class.std::unique_ptr", i32, [4 x i8] }>
%struct.gpr_refcount = type { i64 }
%struct.grpc_closure_list = type { ptr, ptr }
%"struct.grpc_core::PosixTcpOptions" = type { i32, i32, i32, i32, i32, i32, i8, i32, i32, i32, i8, i8, %"class.grpc_core::RefCountedPtr", ptr }
%"class.grpc_core::RefCountedPtr" = type { ptr }
%"class.std::shared_ptr" = type { %"class.std::__shared_ptr" }
%"class.std::__shared_ptr" = type { ptr, %"class.std::__shared_count" }
%"class.std::__shared_count" = type { ptr }
%"class.absl::lts_20240722::flat_hash_map" = type { %"class.absl::lts_20240722::container_internal::raw_hash_map" }
%"class.absl::lts_20240722::container_internal::raw_hash_map" = type { %"class.absl::lts_20240722::container_internal::raw_hash_set" }
%"class.absl::lts_20240722::container_internal::raw_hash_set" = type { %"class.absl::lts_20240722::container_internal::CompressedTuple" }
%"class.absl::lts_20240722::container_internal::CompressedTuple" = type { %"struct.absl::lts_20240722::container_internal::internal_compressed_tuple::CompressedTupleImpl" }
%"struct.absl::lts_20240722::container_internal::internal_compressed_tuple::CompressedTupleImpl" = type { %"struct.absl::lts_20240722::container_internal::internal_compressed_tuple::Storage" }
%"struct.absl::lts_20240722::container_internal::internal_compressed_tuple::Storage" = type { %"class.absl::lts_20240722::container_internal::CommonFields" }
%"class.absl::lts_20240722::container_internal::CommonFields" = type { i64, i64, %"union.absl::lts_20240722::container_internal::HeapOrSoo" }
%"union.absl::lts_20240722::container_internal::HeapOrSoo" = type { %"struct.absl::lts_20240722::container_internal::HeapPtrs" }
%"struct.absl::lts_20240722::container_internal::HeapPtrs" = type { ptr, %"union.absl::lts_20240722::container_internal::MaybeInitializedPtr" }
%"union.absl::lts_20240722::container_internal::MaybeInitializedPtr" = type { ptr }
%"class.std::unique_ptr" = type { %"struct.std::__uniq_ptr_data" }
%"struct.std::__uniq_ptr_data" = type { %"class.std::__uniq_ptr_impl" }
%"class.std::__uniq_ptr_impl" = type { %"class.std::tuple" }
%"class.std::tuple" = type { %"struct.std::_Tuple_impl" }
%"struct.std::_Tuple_impl" = type { %"struct.std::_Head_base.4" }
%"struct.std::_Head_base.4" = type { ptr }
%struct.grpc_tcp_listener = type { i32, ptr, ptr, %struct.grpc_resolved_address, i32, i32, i32, %struct.grpc_closure, %struct.grpc_closure, ptr, ptr, i32, %struct.grpc_closure, %struct.grpc_timer, i64 }
%struct.grpc_resolved_address = type { [128 x i8], i32 }
%struct.grpc_closure = type { %union.anon.10, ptr, ptr, %union.anon.11 }
%union.anon.10 = type { ptr }
%union.anon.11 = type { i64 }
%struct.grpc_timer = type { i64, i32, i8, ptr, ptr, ptr, %union.anon.12 }
%union.anon.12 = type { %"struct.grpc_event_engine::experimental::EventEngine::TaskHandle" }
%"struct.grpc_event_engine::experimental::EventEngine::TaskHandle" = type { [2 x i64] }
%"class.absl::lts_20240722::Status" = type { i64 }
%"class.std::basic_string_view" = type { i64, ptr }
%"class.absl::lts_20240722::log_internal::Voidify" = type { i8 }
%"class.absl::lts_20240722::log_internal::LogMessageFatal" = type { %"class.absl::lts_20240722::log_internal::LogMessage" }
%"class.absl::lts_20240722::log_internal::LogMessage" = type { %"class.absl::lts_20240722::base_internal::ErrnoSaver", %"class.std::unique_ptr.13" }
%"class.absl::lts_20240722::base_internal::ErrnoSaver" = type { i32 }
%"class.std::unique_ptr.13" = type { %"struct.std::__uniq_ptr_data.14" }
%"struct.std::__uniq_ptr_data.14" = type { %"class.std::__uniq_ptr_impl.15" }
%"class.std::__uniq_ptr_impl.15" = type { %"class.std::tuple.16" }
%"class.std::tuple.16" = type { %"struct.std::_Tuple_impl.17" }
%"struct.std::_Tuple_impl.17" = type { %"struct.std::_Head_base.20" }
%"struct.std::_Head_base.20" = type { ptr }
%"class.grpc_core::DebugLocation" = type { i8 }

@.str.4 = private unnamed_addr constant [126 x i8] c"generated/home/dtcxzyw/WorkSpace/Projects/compilers/llvm-opt-benchmark/bench/grpc/grpc/src/core/lib/iomgr/tcp_server_posix.cc\00", align 1
@.str.15 = private unnamed_addr constant [12 x i8] c"s->shutdown\00", align 1

; Function Attrs: mustprogress nounwind uwtable
define linkonce_odr void @_ZN4absl12lts_202407226StatusC2Em(ptr noundef nonnull align 8 dereferenceable(8) %0, i64 noundef %1) unnamed_addr #6 comdat align 2 {
  %3 = alloca ptr, align 8
  %4 = alloca i64, align 8
  store ptr %0, ptr %3, align 8, !tbaa !323
  store i64 %1, ptr %4, align 8, !tbaa !88
  %5 = load ptr, ptr %3, align 8
  %6 = getelementptr inbounds nuw %"class.absl::lts_20240722::Status", ptr %5, i32 0, i32 0
  %7 = load i64, ptr %4, align 8, !tbaa !88
  store i64 %7, ptr %6, align 8, !tbaa !325
  ret void
}

; Function Attrs: mustprogress nounwind uwtable
define linkonce_odr noundef i64 @_ZN4absl12lts_202407226Status16CodeToInlinedRepENS0_10StatusCodeE(i32 noundef %0) #6 comdat align 2 {
  %2 = alloca i32, align 4
  store i32 %0, ptr %2, align 4, !tbaa !327
  %3 = load i32, ptr %2, align 4, !tbaa !327
  %4 = sext i32 %3 to i64
  %5 = shl i64 %4, 2
  %6 = add i64 %5, 1
  ret i64 %6
}

; Function Attrs: inlinehint mustprogress nounwind uwtable
define linkonce_odr void @_ZN4absl12lts_202407226StatusC2ENS0_10StatusCodeE(ptr noundef nonnull align 8 dereferenceable(8) %0, i32 noundef %1) unnamed_addr #16 comdat align 2 {
  %3 = alloca ptr, align 8
  %4 = alloca i32, align 4
  store ptr %0, ptr %3, align 8, !tbaa !323
  store i32 %1, ptr %4, align 4, !tbaa !327
  %5 = load ptr, ptr %3, align 8
  %6 = load i32, ptr %4, align 4, !tbaa !327
  %7 = call noundef i64 @_ZN4absl12lts_202407226Status16CodeToInlinedRepENS0_10StatusCodeE(i32 noundef %6)
  call void @_ZN4absl12lts_202407226StatusC2Em(ptr noundef nonnull align 8 dereferenceable(8) %5, i64 noundef %7)
  ret void
}

; Function Attrs: inlinehint mustprogress uwtable
define linkonce_odr void @_ZN4absl12lts_202407226StatusC2Ev(ptr noundef nonnull align 8 dereferenceable(8) %0) unnamed_addr #9 comdat align 2 {
  %2 = alloca ptr, align 8
  store ptr %0, ptr %2, align 8, !tbaa !323
  %3 = load ptr, ptr %2, align 8
  call void @_ZN4absl12lts_202407226StatusC2ENS0_10StatusCodeE(ptr noundef nonnull align 8 dereferenceable(8) %3, i32 noundef 0)
  ret void
}

; Function Attrs: mustprogress nounwind uwtable
define linkonce_odr noundef i64 @_ZNSt11char_traitsIcE6lengthEPKc(ptr noundef %0) #6 comdat align 2 {
  %2 = alloca ptr, align 8
  store ptr %0, ptr %2, align 8, !tbaa !141
  %3 = load ptr, ptr %2, align 8, !tbaa !141
  %4 = call i64 @strlen(ptr noundef %3) #3
  ret i64 %4
}

; Function Attrs: inlinehint mustprogress uwtable
define linkonce_odr void @_ZN4absl12lts_202407228OkStatusEv(ptr dead_on_unwind noalias writable sret(%"class.absl::lts_20240722::Status") align 8 %0) #9 comdat {
  %2 = alloca ptr, align 8
  store ptr %0, ptr %2, align 8
  call void @_ZN4absl12lts_202407226StatusC2Ev(ptr noundef nonnull align 8 dereferenceable(8) %0)
  ret void
}

; Function Attrs: mustprogress nounwind uwtable
define linkonce_odr void @_ZN9grpc_core13DebugLocationC2EPKci(ptr noundef nonnull align 1 dereferenceable(1) %0, ptr noundef %1, i32 noundef %2) unnamed_addr #6 comdat align 2 {
  %4 = alloca ptr, align 8
  %5 = alloca ptr, align 8
  %6 = alloca i32, align 4
  store ptr %0, ptr %4, align 8, !tbaa !570
  store ptr %1, ptr %5, align 8, !tbaa !141
  store i32 %2, ptr %6, align 4, !tbaa !8
  ret void
}

; Function Attrs: mustprogress nounwind uwtable
define linkonce_odr void @_ZNKO4absl12lts_2024072212log_internal7VoidifyaaINS1_10LogMessageEEEvRKT_(ptr noundef nonnull align 1 dereferenceable(1) %0, ptr noundef nonnull align 8 dereferenceable(16) %1) #6 comdat align 2 {
  %3 = alloca ptr, align 8
  %4 = alloca ptr, align 8
  store ptr %0, ptr %3, align 8, !tbaa !156
  store ptr %1, ptr %4, align 8, !tbaa !158
  ret void
}

; Function Attrs: mustprogress nounwind uwtable
define linkonce_odr noundef nonnull align 8 dereferenceable(16) ptr @_ZN4absl12lts_2024072212log_internal10LogMessage14InternalStreamEv(ptr noundef nonnull align 8 dereferenceable(16) %0) #6 comdat align 2 {
  %2 = alloca ptr, align 8
  store ptr %0, ptr %2, align 8, !tbaa !158
  %3 = load ptr, ptr %2, align 8
  ret ptr %3
}

; Function Attrs: mustprogress nounwind uwtable
define linkonce_odr void @_ZNSt17basic_string_viewIcSt11char_traitsIcEEC2EPKc(ptr noundef nonnull align 8 dereferenceable(16) %0, ptr noundef nonnull %1) unnamed_addr #6 comdat align 2 personality ptr @__gxx_personality_v0 {
  %3 = alloca ptr, align 8
  %4 = alloca ptr, align 8
  store ptr %0, ptr %3, align 8, !tbaa !139
  store ptr %1, ptr %4, align 8, !tbaa !141
  %5 = load ptr, ptr %3, align 8
  %6 = getelementptr inbounds nuw %"class.std::basic_string_view", ptr %5, i32 0, i32 0
  %7 = load ptr, ptr %4, align 8, !tbaa !141
  %8 = invoke noundef i64 @_ZNSt11char_traitsIcE6lengthEPKc(ptr noundef %7)
          to label %9 unwind label %12

9:                                                ; preds = %2
  store i64 %8, ptr %6, align 8, !tbaa !143
  %10 = getelementptr inbounds nuw %"class.std::basic_string_view", ptr %5, i32 0, i32 1
  %11 = load ptr, ptr %4, align 8, !tbaa !141
  store ptr %11, ptr %10, align 8, !tbaa !145
  ret void

12:                                               ; preds = %2
  %13 = landingpad { ptr, i32 }
          catch ptr null
  %14 = extractvalue { ptr, i32 } %13, 0
  call void @__clang_call_terminate(ptr %14) #36
  unreachable
}

; Function Attrs: mustprogress uwtable
define internal void @_ZL15finish_shutdownP15grpc_tcp_server(ptr noundef %0) #4 personality ptr @__gxx_personality_v0 {
  %2 = alloca ptr, align 8
  %3 = alloca %"class.absl::lts_20240722::log_internal::Voidify", align 1
  %4 = alloca %"class.absl::lts_20240722::log_internal::LogMessageFatal", align 8
  %5 = alloca i1, align 1
  %6 = alloca %"class.std::basic_string_view", align 8
  %7 = alloca i1, align 1
  %8 = alloca %"class.grpc_core::DebugLocation", align 1
  %9 = alloca %"class.absl::lts_20240722::Status", align 8
  %10 = alloca ptr, align 8
  %11 = alloca i32, align 4
  %12 = alloca ptr, align 8
  store ptr %0, ptr %2, align 8, !tbaa !3
  %13 = load ptr, ptr %2, align 8, !tbaa !3
  %14 = getelementptr inbounds nuw %struct.grpc_tcp_server, ptr %13, i32 0, i32 3
  call void @gpr_mu_lock(ptr noundef %14)
  %15 = load ptr, ptr %2, align 8, !tbaa !3
  %16 = getelementptr inbounds nuw %struct.grpc_tcp_server, ptr %15, i32 0, i32 6
  %17 = load i8, ptr %16, align 8, !tbaa !78, !range !95, !noundef !96
  %18 = trunc i8 %17 to i1
  %19 = xor i1 %18, true
  %20 = zext i1 %19 to i64
  %21 = call i64 @llvm.expect.i64(i64 %20, i64 0)
  %22 = icmp ne i64 %21, 0
  call void @llvm.lifetime.start.p0(i64 1, ptr %3) #3
  store i1 false, ptr %5, align 1
  store i1 false, ptr %7, align 1
  br i1 %22, label %24, label %23

23:                                               ; preds = %1
  br label %30

24:                                               ; preds = %1
  call void @llvm.lifetime.start.p0(i64 16, ptr %4) #3
  store i1 true, ptr %5, align 1
  call void @_ZNSt17basic_string_viewIcSt11char_traitsIcEEC2EPKc(ptr noundef nonnull align 8 dereferenceable(16) %6, ptr noundef @.str.15) #3
  %25 = getelementptr inbounds nuw { i64, ptr }, ptr %6, i32 0, i32 0
  %26 = load i64, ptr %25, align 8
  %27 = getelementptr inbounds nuw { i64, ptr }, ptr %6, i32 0, i32 1
  %28 = load ptr, ptr %27, align 8
  call void @_ZN4absl12lts_2024072212log_internal15LogMessageFatalC1EPKciSt17basic_string_viewIcSt11char_traitsIcEE(ptr noundef nonnull align 8 dereferenceable(16) %4, ptr noundef @.str.4, i32 noundef 91, i64 %26, ptr %28) #35
  store i1 true, ptr %7, align 1
  %29 = call noundef nonnull align 8 dereferenceable(16) ptr @_ZN4absl12lts_2024072212log_internal10LogMessage14InternalStreamEv(ptr noundef nonnull align 8 dereferenceable(16) %4)
  call void @_ZNKO4absl12lts_2024072212log_internal7VoidifyaaINS1_10LogMessageEEEvRKT_(ptr noundef nonnull align 1 dereferenceable(1) %3, ptr noundef nonnull align 8 dereferenceable(16) %29)
  br label %30

30:                                               ; preds = %24, %23
  %31 = load i1, ptr %7, align 1
  br i1 %31, label %32, label %34

32:                                               ; preds = %30
  call void @_ZN4absl12lts_2024072212log_internal15LogMessageFatalD1Ev(ptr noundef nonnull align 8 dereferenceable(16) %4) #36
  unreachable

33:                                               ; No predecessors!
  br label %34

34:                                               ; preds = %33, %30
  %35 = load i1, ptr %5, align 1
  br i1 %35, label %36, label %37

36:                                               ; preds = %34
  call void @llvm.lifetime.end.p0(i64 16, ptr %4) #3
  br label %37

37:                                               ; preds = %36, %34
  call void @llvm.lifetime.end.p0(i64 1, ptr %3) #3
  %38 = load ptr, ptr %2, align 8, !tbaa !3
  %39 = getelementptr inbounds nuw %struct.grpc_tcp_server, ptr %38, i32 0, i32 3
  call void @gpr_mu_unlock(ptr noundef %39)
  %40 = load ptr, ptr %2, align 8, !tbaa !3
  %41 = getelementptr inbounds nuw %struct.grpc_tcp_server, ptr %40, i32 0, i32 16
  %42 = load ptr, ptr %41, align 8, !tbaa !81
  %43 = icmp ne ptr %42, null
  br i1 %43, label %44, label %53

44:                                               ; preds = %37
  call void @llvm.lifetime.start.p0(i64 1, ptr %8) #3
  call void @_ZN9grpc_core13DebugLocationC2EPKci(ptr noundef nonnull align 1 dereferenceable(1) %8, ptr noundef @.str.4, i32 noundef 94)
  %45 = load ptr, ptr %2, align 8, !tbaa !3
  %46 = getelementptr inbounds nuw %struct.grpc_tcp_server, ptr %45, i32 0, i32 16
  %47 = load ptr, ptr %46, align 8, !tbaa !81
  call void @_ZN4absl12lts_202407228OkStatusEv(ptr dead_on_unwind writable sret(%"class.absl::lts_20240722::Status") align 8 %9)
  invoke void @_ZN9grpc_core7ExecCtx3RunERKNS_13DebugLocationEP12grpc_closureN4absl12lts_202407226StatusE(ptr noundef nonnull align 1 dereferenceable(1) %8, ptr noundef %47, ptr noundef %9)
          to label %48 unwind label %49

48:                                               ; preds = %44
  call void @_ZN4absl12lts_202407226StatusD2Ev(ptr noundef nonnull align 8 dereferenceable(8) %9) #3
  call void @llvm.lifetime.end.p0(i64 1, ptr %8) #3
  br label %53

49:                                               ; preds = %44
  %50 = landingpad { ptr, i32 }
          cleanup
  %51 = extractvalue { ptr, i32 } %50, 0
  store ptr %51, ptr %10, align 8
  %52 = extractvalue { ptr, i32 } %50, 1
  store i32 %52, ptr %11, align 4
  call void @_ZN4absl12lts_202407226StatusD2Ev(ptr noundef nonnull align 8 dereferenceable(8) %9) #3
  call void @llvm.lifetime.end.p0(i64 1, ptr %8) #3
  br label %85

53:                                               ; preds = %48, %37
  %54 = load ptr, ptr %2, align 8, !tbaa !3
  %55 = getelementptr inbounds nuw %struct.grpc_tcp_server, ptr %54, i32 0, i32 3
  call void @gpr_mu_destroy(ptr noundef %55)
  br label %56

56:                                               ; preds = %61, %53
  %57 = load ptr, ptr %2, align 8, !tbaa !3
  %58 = getelementptr inbounds nuw %struct.grpc_tcp_server, ptr %57, i32 0, i32 11
  %59 = load ptr, ptr %58, align 8, !tbaa !33
  %60 = icmp ne ptr %59, null
  br i1 %60, label %61, label %71

61:                                               ; preds = %56
  call void @llvm.lifetime.start.p0(i64 8, ptr %12) #3
  %62 = load ptr, ptr %2, align 8, !tbaa !3
  %63 = getelementptr inbounds nuw %struct.grpc_tcp_server, ptr %62, i32 0, i32 11
  %64 = load ptr, ptr %63, align 8, !tbaa !33
  store ptr %64, ptr %12, align 8, !tbaa !12
  %65 = load ptr, ptr %12, align 8, !tbaa !12
  %66 = getelementptr inbounds nuw %struct.grpc_tcp_listener, ptr %65, i32 0, i32 9
  %67 = load ptr, ptr %66, align 8, !tbaa !63
  %68 = load ptr, ptr %2, align 8, !tbaa !3
  %69 = getelementptr inbounds nuw %struct.grpc_tcp_server, ptr %68, i32 0, i32 11
  store ptr %67, ptr %69, align 8, !tbaa !33
  %70 = load ptr, ptr %12, align 8, !tbaa !12
  call void @gpr_free(ptr noundef %70)
  call void @llvm.lifetime.end.p0(i64 8, ptr %12) #3
  br label %56, !llvm.loop !569

71:                                               ; preds = %56
  %72 = load ptr, ptr %2, align 8, !tbaa !3
  %73 = getelementptr inbounds nuw %struct.grpc_tcp_server, ptr %72, i32 0, i32 20
  %74 = load ptr, ptr %73, align 8, !tbaa !86
  %75 = icmp eq ptr %74, null
  br i1 %75, label %80, label %76

76:                                               ; preds = %71
  %77 = load ptr, ptr %74, align 8, !tbaa !74
  %78 = getelementptr inbounds ptr, ptr %77, i64 1
  %79 = load ptr, ptr %78, align 8
  call void %79(ptr noundef nonnull align 8 dereferenceable(8) %74) #3
  br label %80

80:                                               ; preds = %76, %71
  %81 = load ptr, ptr %2, align 8, !tbaa !3
  %82 = icmp eq ptr %81, null
  br i1 %82, label %84, label %83

83:                                               ; preds = %80
  call void @_ZN15grpc_tcp_serverD2Ev(ptr noundef nonnull align 8 dereferenceable(260) %81) #3
  call void @_ZdlPvm(ptr noundef %81, i64 noundef 264) #34
  br label %84

84:                                               ; preds = %83, %80
  ret void

85:                                               ; preds = %49
  %86 = load ptr, ptr %10, align 8
  %87 = load i32, ptr %11, align 4
  %88 = insertvalue { ptr, i32 } poison, ptr %86, 0
  %89 = insertvalue { ptr, i32 } %88, i32 %87, 1
  resume { ptr, i32 } %89
}