; Function Attrs: mustprogress uwtable
define internal fastcc void @_ZL15finish_shutdownP15grpc_tcp_server(ptr noundef %0) unnamed_addr #5 personality ptr @__gxx_personality_v0 {
  %2 = alloca %"class.absl::lts_20240722::log_internal::LogMessageFatal", align 8
  %3 = alloca %"class.grpc_core::DebugLocation", align 1
  %4 = alloca %"class.absl::lts_20240722::Status", align 8
  %5 = getelementptr inbounds nuw i8, ptr %0, i64 24
  tail call void @gpr_mu_lock(ptr noundef nonnull %5)
  %6 = getelementptr inbounds nuw i8, ptr %0, i64 48
  %7 = load i8, ptr %6, align 8, !tbaa !229, !range !85, !noundef !11
  %8 = trunc nuw i8 %7 to i1
  br i1 %8, label %.critedge, label %9, !prof !142

9:                                                ; preds = %1
  call void @llvm.lifetime.start.p0(i64 16, ptr nonnull %2) #36
  call void @_ZN4absl12lts_2024072212log_internal15LogMessageFatalC1EPKciSt17basic_string_viewIcSt11char_traitsIcEE(ptr noundef nonnull align 8 dereferenceable(16) %2, ptr noundef nonnull @.str.4, i32 noundef 91, i64 11, ptr nonnull @.str.15) #38
  call void @_ZN4absl12lts_2024072212log_internal15LogMessageFatalD1Ev(ptr noundef nonnull align 8 dereferenceable(16) %2) #37
  unreachable

.critedge:                                        ; preds = %1
  tail call void @gpr_mu_unlock(ptr noundef nonnull %5)
  %10 = getelementptr inbounds nuw i8, ptr %0, i64 96
  %11 = load ptr, ptr %10, align 8, !tbaa !79
  %.not = icmp eq ptr %11, null
  br i1 %.not, label %23, label %12

12:                                               ; preds = %.critedge
  call void @llvm.lifetime.start.p0(i64 1, ptr nonnull %3) #36
  store i64 1, ptr %4, align 8, !tbaa !121, !alias.scope !288
  invoke void @_ZN9grpc_core7ExecCtx3RunERKNS_13DebugLocationEP12grpc_closureN4absl12lts_202407226StatusE(ptr noundef nonnull align 1 dereferenceable(1) %3, ptr noundef nonnull %11, ptr noundef nonnull %4)
          to label %13 unwind label %21

13:                                               ; preds = %12
  %14 = load i64, ptr %4, align 8, !tbaa !121
  %15 = and i64 %14, 1
  %.not.i.i = icmp eq i64 %15, 0
  br i1 %.not.i.i, label %16, label %_ZN4absl12lts_202407226StatusD2Ev.exit

16:                                               ; preds = %13
  %17 = inttoptr i64 %14 to ptr
  invoke void @_ZNK4absl12lts_2024072215status_internal9StatusRep5UnrefEv(ptr noundef nonnull align 8 dereferenceable(48) %17)
          to label %_ZN4absl12lts_202407226StatusD2Ev.exit unwind label %18

18:                                               ; preds = %16
  %19 = landingpad { ptr, i32 }
          catch ptr null
  %20 = extractvalue { ptr, i32 } %19, 0
  call void @__clang_call_terminate(ptr %20) #37
  unreachable

_ZN4absl12lts_202407226StatusD2Ev.exit:           ; preds = %13, %16
  call void @llvm.lifetime.end.p0(i64 1, ptr nonnull %3) #36
  br label %23

21:                                               ; preds = %12
  %22 = landingpad { ptr, i32 }
          cleanup
  call void @_ZN4absl12lts_202407226StatusD2Ev(ptr noundef nonnull align 8 dereferenceable(8) %4) #36
  call void @llvm.lifetime.end.p0(i64 1, ptr nonnull %3) #36
  resume { ptr, i32 } %22

23:                                               ; preds = %_ZN4absl12lts_202407226StatusD2Ev.exit, %.critedge
  call void @gpr_mu_destroy(ptr noundef nonnull %5)
  %24 = getelementptr inbounds nuw i8, ptr %0, i64 56
  %25 = load ptr, ptr %24, align 8, !tbaa !151
  %.not2022 = icmp eq ptr %25, null
  br i1 %.not2022, label %._crit_edge, label %.lr.ph

.lr.ph:                                           ; preds = %23, %.lr.ph
  %26 = phi ptr [ %29, %.lr.ph ], [ %25, %23 ]
  %27 = getelementptr inbounds nuw i8, ptr %26, i64 232
  %28 = load ptr, ptr %27, align 8, !tbaa !160
  store ptr %28, ptr %24, align 8, !tbaa !151
  call void @gpr_free(ptr noundef nonnull %26)
  %29 = load ptr, ptr %24, align 8, !tbaa !151
  %.not20 = icmp eq ptr %29, null
  br i1 %.not20, label %._crit_edge, label %.lr.ph, !llvm.loop !291

._crit_edge:                                      ; preds = %.lr.ph, %23
  %30 = getelementptr inbounds nuw i8, ptr %0, i64 184
  %31 = load ptr, ptr %30, align 8, !tbaa !87
  %32 = icmp eq ptr %31, null
  br i1 %32, label %37, label %33

33:                                               ; preds = %._crit_edge
  %34 = load ptr, ptr %31, align 8, !tbaa !77
  %35 = getelementptr inbounds nuw i8, ptr %34, i64 8
  %36 = load ptr, ptr %35, align 8
  call void %36(ptr noundef nonnull align 8 dereferenceable(8) %31) #36
  br label %37

37:                                               ; preds = %33, %._crit_edge
  call void @_ZN15grpc_tcp_serverD2Ev(ptr noundef nonnull align 8 dereferenceable(260) %0) #36
  call void @_ZdlPvm(ptr noundef nonnull %0, i64 noundef 264) #39
  ret void
}